target datalayout = "e-m:e-p270:32:32-p271:32:32-p272:64:64-i64:64-i128:128-f80:128-n8:16:32:64-S128"
target triple = "x86_64-pc-linux-gnu"

; Function Attrs: nounwind uwtable
define hidden i32 @KeccakWidth1600_Sponge(i32 noundef %0, i32 noundef %1, ptr noundef %2, i64 noundef %3, i8 noundef zeroext %4, ptr noundef %5, i64 noundef %6) #0 {
  %8 = alloca i32, align 4
  %9 = alloca i32, align 4
  %10 = alloca i32, align 4
  %11 = alloca ptr, align 8
  %12 = alloca i64, align 8
  %13 = alloca i8, align 1
  %14 = alloca ptr, align 8
  %15 = alloca i64, align 8
  %16 = alloca [200 x i8], align 8
  %17 = alloca i32, align 4
  %18 = alloca ptr, align 8
  %19 = alloca ptr, align 8
  %20 = alloca i32, align 4
  %21 = alloca i32, align 4
  %22 = alloca i64, align 8
  store i32 %0, ptr %9, align 4, !tbaa !4
  store i32 %1, ptr %10, align 4, !tbaa !4
  store ptr %2, ptr %11, align 8, !tbaa !8
  store i64 %3, ptr %12, align 8, !tbaa !11
  store i8 %4, ptr %13, align 1, !tbaa !13
  store ptr %5, ptr %14, align 8, !tbaa !8
  store i64 %6, ptr %15, align 8, !tbaa !11
  call void @llvm.lifetime.start.p0(i64 200, ptr %16) #3
  call void @llvm.lifetime.start.p0(i64 4, ptr %17) #3
  call void @llvm.lifetime.start.p0(i64 8, ptr %18) #3
  %23 = load ptr, ptr %11, align 8, !tbaa !8
  store ptr %23, ptr %18, align 8, !tbaa !8
  call void @llvm.lifetime.start.p0(i64 8, ptr %19) #3
  %24 = load ptr, ptr %14, align 8, !tbaa !8
  store ptr %24, ptr %19, align 8, !tbaa !8
  call void @llvm.lifetime.start.p0(i64 4, ptr %20) #3
  %25 = load i32, ptr %9, align 4, !tbaa !4
  %26 = udiv i32 %25, 8
  store i32 %26, ptr %20, align 4, !tbaa !4
  %27 = load i32, ptr %9, align 4, !tbaa !4
  %28 = load i32, ptr %10, align 4, !tbaa !4
  %29 = add i32 %27, %28
  %30 = icmp ne i32 %29, 1600
  br i1 %30, label %31, label %32

31:                                               ; preds = %7
  store i32 1, ptr %8, align 4
  store i32 1, ptr %21, align 4
  br label %151

32:                                               ; preds = %7
  %33 = load i32, ptr %9, align 4, !tbaa !4
  %34 = icmp ule i32 %33, 0
  br i1 %34, label %42, label %35

35:                                               ; preds = %32
  %36 = load i32, ptr %9, align 4, !tbaa !4
  %37 = icmp ugt i32 %36, 1600
  br i1 %37, label %42, label %38

38:                                               ; preds = %35
  %39 = load i32, ptr %9, align 4, !tbaa !4
  %40 = urem i32 %39, 8
  %41 = icmp ne i32 %40, 0
  br i1 %41, label %42, label %43

42:                                               ; preds = %38, %35, %32
  store i32 1, ptr %8, align 4
  store i32 1, ptr %21, align 4
  br label %151

43:                                               ; preds = %38
  %44 = load i8, ptr %13, align 1, !tbaa !13
  %45 = zext i8 %44 to i32
  %46 = icmp eq i32 %45, 0
  br i1 %46, label %47, label %48

47:                                               ; preds = %43
  store i32 1, ptr %8, align 4
  store i32 1, ptr %21, align 4
  br label %151

48:                                               ; preds = %43
  %49 = getelementptr inbounds [200 x i8], ptr %16, i64 0, i64 0
  call void @KeccakP1600_Initialize(ptr noundef %49)
  %50 = load i32, ptr %20, align 4, !tbaa !4
  %51 = urem i32 %50, 8
  %52 = icmp eq i32 %51, 0
  br i1 %52, label %53, label %71

53:                                               ; preds = %48
  %54 = load i64, ptr %12, align 8, !tbaa !11
  %55 = load i32, ptr %20, align 4, !tbaa !4
  %56 = zext i32 %55 to i64
  %57 = icmp uge i64 %54, %56
  br i1 %57, label %58, label %71

58:                                               ; preds = %53
  call void @llvm.lifetime.start.p0(i64 8, ptr %22) #3
  %59 = getelementptr inbounds [200 x i8], ptr %16, i64 0, i64 0
  %60 = load i32, ptr %20, align 4, !tbaa !4
  %61 = udiv i32 %60, 8
  %62 = load ptr, ptr %18, align 8, !tbaa !8
  %63 = load i64, ptr %12, align 8, !tbaa !11
  %64 = call i64 @KeccakF1600_FastLoop_Absorb(ptr noundef %59, i32 noundef %61, ptr noundef %62, i64 noundef %63)
  store i64 %64, ptr %22, align 8, !tbaa !11
  %65 = load i64, ptr %22, align 8, !tbaa !11
  %66 = load ptr, ptr %18, align 8, !tbaa !8
  %67 = getelementptr inbounds nuw i8, ptr %66, i64 %65
  store ptr %67, ptr %18, align 8, !tbaa !8
  %68 = load i64, ptr %22, align 8, !tbaa !11
  %69 = load i64, ptr %12, align 8, !tbaa !11
  %70 = sub i64 %69, %68
  store i64 %70, ptr %12, align 8, !tbaa !11
  call void @llvm.lifetime.end.p0(i64 8, ptr %22) #3
  br label %71

71:                                               ; preds = %58, %53, %48
  br label %72

72:                                               ; preds = %77, %71
  %73 = load i64, ptr %12, align 8, !tbaa !11
  %74 = load i32, ptr %20, align 4, !tbaa !4
  %75 = zext i32 %74 to i64
  %76 = icmp uge i64 %73, %75
  br i1 %76, label %77, label %90

77:                                               ; preds = %72
  %78 = getelementptr inbounds [200 x i8], ptr %16, i64 0, i64 0
  %79 = load ptr, ptr %18, align 8, !tbaa !8
  %80 = load i32, ptr %20, align 4, !tbaa !4
  call void @KeccakP1600_AddBytes(ptr noundef %78, ptr noundef %79, i32 noundef 0, i32 noundef %80)
  %81 = getelementptr inbounds [200 x i8], ptr %16, i64 0, i64 0
  call void @KeccakP1600_Permute_24rounds(ptr noundef %81)
  %82 = load i32, ptr %20, align 4, !tbaa !4
  %83 = load ptr, ptr %18, align 8, !tbaa !8
  %84 = zext i32 %82 to i64
  %85 = getelementptr inbounds nuw i8, ptr %83, i64 %84
  store ptr %85, ptr %18, align 8, !tbaa !8
  %86 = load i32, ptr %20, align 4, !tbaa !4
  %87 = zext i32 %86 to i64
  %88 = load i64, ptr %12, align 8, !tbaa !11
  %89 = sub i64 %88, %87
  store i64 %89, ptr %12, align 8, !tbaa !11
  br label %72

90:                                               ; preds = %72
  %91 = load i64, ptr %12, align 8, !tbaa !11
  %92 = trunc i64 %91 to i32
  store i32 %92, ptr %17, align 4, !tbaa !4
  %93 = getelementptr inbounds [200 x i8], ptr %16, i64 0, i64 0
  %94 = load ptr, ptr %18, align 8, !tbaa !8
  %95 = load i32, ptr %17, align 4, !tbaa !4
  call void @KeccakP1600_AddBytes(ptr noundef %93, ptr noundef %94, i32 noundef 0, i32 noundef %95)
  %96 = load i8, ptr %13, align 1, !tbaa !13
  %97 = zext i8 %96 to i32
  %98 = getelementptr inbounds [200 x i8], ptr %16, i64 0, i64 0
  %99 = load i32, ptr %17, align 4, !tbaa !4
  %100 = zext i32 %99 to i64
  %101 = getelementptr inbounds nuw i8, ptr %98, i64 %100
  %102 = load i8, ptr %101, align 1, !tbaa !13
  %103 = zext i8 %102 to i32
  %104 = xor i32 %103, %97
  %105 = trunc i32 %104 to i8
  store i8 %105, ptr %101, align 1, !tbaa !13
  %106 = load i8, ptr %13, align 1, !tbaa !13
  %107 = zext i8 %106 to i32
  %108 = icmp sge i32 %107, 128
  br i1 %108, label %109, label %116

109:                                              ; preds = %90
  %110 = load i32, ptr %17, align 4, !tbaa !4
  %111 = load i32, ptr %20, align 4, !tbaa !4
  %112 = sub i32 %111, 1
  %113 = icmp eq i32 %110, %112
  br i1 %113, label %114, label %116

114:                                              ; preds = %109
  %115 = getelementptr inbounds [200 x i8], ptr %16, i64 0, i64 0
  call void @KeccakP1600_Permute_24rounds(ptr noundef %115)
  br label %116

116:                                              ; preds = %114, %109, %90
  %117 = getelementptr inbounds [200 x i8], ptr %16, i64 0, i64 0
  %118 = load i32, ptr %20, align 4, !tbaa !4
  %119 = sub i32 %118, 1
  %120 = zext i32 %119 to i64
  %121 = getelementptr inbounds nuw i8, ptr %117, i64 %120
  %122 = load i8, ptr %121, align 1, !tbaa !13
  %123 = zext i8 %122 to i32
  %124 = xor i32 %123, 128
  %125 = trunc i32 %124 to i8
  store i8 %125, ptr %121, align 1, !tbaa !13
  %126 = getelementptr inbounds [200 x i8], ptr %16, i64 0, i64 0
  call void @KeccakP1600_Permute_24rounds(ptr noundef %126)
  br label %127

127:                                              ; preds = %132, %116
  %128 = load i64, ptr %15, align 8, !tbaa !11
  %129 = load i32, ptr %20, align 4, !tbaa !4
  %130 = zext i32 %129 to i64
  %131 = icmp ugt i64 %128, %130
  br i1 %131, label %132, label %145

132:                                              ; preds = %127
  %133 = getelementptr inbounds [200 x i8], ptr %16, i64 0, i64 0
  %134 = load ptr, ptr %19, align 8, !tbaa !8
  %135 = load i32, ptr %20, align 4, !tbaa !4
  call void @KeccakP1600_ExtractBytes(ptr noundef %133, ptr noundef %134, i32 noundef 0, i32 noundef %135)
  %136 = getelementptr inbounds [200 x i8], ptr %16, i64 0, i64 0
  call void @KeccakP1600_Permute_24rounds(ptr noundef %136)
  %137 = load i32, ptr %20, align 4, !tbaa !4
  %138 = load ptr, ptr %19, align 8, !tbaa !8
  %139 = zext i32 %137 to i64
  %140 = getelementptr inbounds nuw i8, ptr %138, i64 %139
  store ptr %140, ptr %19, align 8, !tbaa !8
  %141 = load i32, ptr %20, align 4, !tbaa !4
  %142 = zext i32 %141 to i64
  %143 = load i64, ptr %15, align 8, !tbaa !11
  %144 = sub i64 %143, %142
  store i64 %144, ptr %15, align 8, !tbaa !11
  br label %127

145:                                              ; preds = %127
  %146 = load i64, ptr %15, align 8, !tbaa !11
  %147 = trunc i64 %146 to i32
  store i32 %147, ptr %17, align 4, !tbaa !4
  %148 = getelementptr inbounds [200 x i8], ptr %16, i64 0, i64 0
  %149 = load ptr, ptr %19, align 8, !tbaa !8
  %150 = load i32, ptr %17, align 4, !tbaa !4
  call void @KeccakP1600_ExtractBytes(ptr noundef %148, ptr noundef %149, i32 noundef 0, i32 noundef %150)
  store i32 0, ptr %8, align 4
  store i32 1, ptr %21, align 4
  br label %151

151:                                              ; preds = %145, %47, %42, %31
  call void @llvm.lifetime.end.p0(i64 4, ptr %20) #3
  call void @llvm.lifetime.end.p0(i64 8, ptr %19) #3
  call void @llvm.lifetime.end.p0(i64 8, ptr %18) #3
  call void @llvm.lifetime.end.p0(i64 4, ptr %17) #3
  call void @llvm.lifetime.end.p0(i64 200, ptr %16) #3
  %152 = load i32, ptr %8, align 4
  ret i32 %152
}