; Function Attrs: nounwind uwtable
define hidden range(i32 0, 2) i32 @KeccakWidth1600_Sponge(i32 noundef %0, i32 noundef %1, ptr noundef %2, i64 noundef %3, i8 noundef zeroext %4, ptr noundef %5, i64 noundef %6) local_unnamed_addr #0 {
  %8 = alloca [200 x i8], align 8
  call void @llvm.lifetime.start.p0(i64 200, ptr nonnull %8) #4
  %9 = lshr i32 %0, 3
  %10 = add i32 %1, %0
  %.not = icmp eq i32 %10, 1600
  br i1 %.not, label %11, label %46

11:                                               ; preds = %7
  %12 = add i32 %0, -1601
  %or.cond = icmp ult i32 %12, -1600
  %13 = and i32 %0, 7
  %.not59 = icmp ne i32 %13, 0
  %or.cond62.not67 = or i1 %or.cond, %.not59
  %14 = icmp eq i8 %4, 0
  %or.cond66 = or i1 %or.cond62.not67, %14
  br i1 %or.cond66, label %46, label %15

15:                                               ; preds = %11
  call void @KeccakP1600_Initialize(ptr noundef nonnull %8) #4
  %16 = and i32 %0, 56
  %17 = icmp ne i32 %16, 0
  %18 = zext nneg i32 %9 to i64
  %.not60 = icmp ult i64 %3, %18
  %or.cond63 = select i1 %17, i1 true, i1 %.not60
  br i1 %or.cond63, label %24, label %19

19:                                               ; preds = %15
  %20 = lshr exact i32 %0, 6
  %21 = call i64 @KeccakF1600_FastLoop_Absorb(ptr noundef nonnull %8, i32 noundef %20, ptr noundef %2, i64 noundef %3) #4
  %22 = getelementptr inbounds nuw i8, ptr %2, i64 %21
  %23 = sub i64 %3, %21
  br label %24

24:                                               ; preds = %19, %15
  %.050 = phi ptr [ %22, %19 ], [ %2, %15 ]
  %.048 = phi i64 [ %23, %19 ], [ %3, %15 ]
  %.not6168 = icmp ult i64 %.048, %18
  br i1 %.not6168, label %._crit_edge, label %.lr.ph

.lr.ph:                                           ; preds = %24, %.lr.ph
  %.170 = phi i64 [ %26, %.lr.ph ], [ %.048, %24 ]
  %.15169 = phi ptr [ %25, %.lr.ph ], [ %.050, %24 ]
  call void @KeccakP1600_AddBytes(ptr noundef nonnull %8, ptr noundef %.15169, i32 noundef 0, i32 noundef %9) #4
  call void @KeccakP1600_Permute_24rounds(ptr noundef nonnull %8) #4
  %25 = getelementptr inbounds nuw i8, ptr %.15169, i64 %18
  %26 = sub nuw i64 %.170, %18
  %.not61 = icmp ult i64 %26, %18
  br i1 %.not61, label %._crit_edge, label %.lr.ph

._crit_edge:                                      ; preds = %.lr.ph, %24
  %.151.lcssa = phi ptr [ %.050, %24 ], [ %25, %.lr.ph ]
  %.1.lcssa = phi i64 [ %.048, %24 ], [ %26, %.lr.ph ]
  %27 = trunc nuw nsw i64 %.1.lcssa to i32
  call void @KeccakP1600_AddBytes(ptr noundef nonnull %8, ptr noundef %.151.lcssa, i32 noundef 0, i32 noundef %27) #4
  %28 = and i64 %.1.lcssa, 4294967295
  %29 = getelementptr inbounds nuw i8, ptr %8, i64 %28
  %30 = load i8, ptr %29, align 1, !tbaa !4
  %31 = xor i8 %30, %4
  store i8 %31, ptr %29, align 1, !tbaa !4
  %32 = icmp slt i8 %4, 0
  %33 = add nsw i32 %9, -1
  %34 = icmp eq i32 %33, %27
  %or.cond65 = select i1 %32, i1 %34, i1 false
  br i1 %or.cond65, label %35, label %36

35:                                               ; preds = %._crit_edge
  call void @KeccakP1600_Permute_24rounds(ptr noundef nonnull %8) #4
  br label %36

36:                                               ; preds = %35, %._crit_edge
  %37 = zext i32 %33 to i64
  %38 = getelementptr inbounds nuw i8, ptr %8, i64 %37
  %39 = load i8, ptr %38, align 1, !tbaa !4
  %40 = xor i8 %39, -128
  store i8 %40, ptr %38, align 1, !tbaa !4
  call void @KeccakP1600_Permute_24rounds(ptr noundef nonnull %8) #4
  %41 = icmp ugt i64 %6, %18
  br i1 %41, label %.lr.ph75, label %._crit_edge76

.lr.ph75:                                         ; preds = %36, %.lr.ph75
  %.04973 = phi ptr [ %42, %.lr.ph75 ], [ %5, %36 ]
  %.05272 = phi i64 [ %43, %.lr.ph75 ], [ %6, %36 ]
  call void @KeccakP1600_ExtractBytes(ptr noundef nonnull %8, ptr noundef %.04973, i32 noundef 0, i32 noundef %9) #4
  call void @KeccakP1600_Permute_24rounds(ptr noundef nonnull %8) #4
  %42 = getelementptr inbounds nuw i8, ptr %.04973, i64 %18
  %43 = sub nuw i64 %.05272, %18
  %44 = icmp ugt i64 %43, %18
  br i1 %44, label %.lr.ph75, label %._crit_edge76

._crit_edge76:                                    ; preds = %.lr.ph75, %36
  %.052.lcssa = phi i64 [ %6, %36 ], [ %43, %.lr.ph75 ]
  %.049.lcssa = phi ptr [ %5, %36 ], [ %42, %.lr.ph75 ]
  %45 = trunc nuw nsw i64 %.052.lcssa to i32
  call void @KeccakP1600_ExtractBytes(ptr noundef nonnull %8, ptr noundef %.049.lcssa, i32 noundef 0, i32 noundef %45) #4
  br label %46

46:                                               ; preds = %11, %7, %._crit_edge76
  %.0 = phi i32 [ 0, %._crit_edge76 ], [ 1, %7 ], [ 1, %11 ]
  call void @llvm.lifetime.end.p0(i64 200, ptr nonnull %8) #4
  ret i32 %.0
}